target datalayout = "e-m:e-p270:32:32-p271:32:32-p272:64:64-i64:64-i128:128-f80:128-n8:16:32:64-S128"
target triple = "x86_64-pc-linux-gnu"

%struct._generic_SUNAdaptController_Ops = type { ptr, ptr, ptr, ptr, ptr, ptr, ptr, ptr, ptr, ptr, ptr }
%struct._generic_SUNAdaptController = type { ptr, ptr, ptr }

; Function Attrs: nounwind uwtable
define i32 @SUNAdaptController_EstimateStepTol(ptr noundef %0, double noundef %1, double noundef %2, i32 noundef %3, double noundef %4, double noundef %5, ptr noundef %6, ptr noundef %7) #0 {
  %9 = alloca i32, align 4
  %10 = alloca ptr, align 8
  %11 = alloca double, align 8
  %12 = alloca double, align 8
  %13 = alloca i32, align 4
  %14 = alloca double, align 8
  %15 = alloca double, align 8
  %16 = alloca ptr, align 8
  %17 = alloca ptr, align 8
  %18 = alloca i32, align 4
  %19 = alloca i32, align 4
  %20 = alloca ptr, align 8
  store ptr %0, ptr %10, align 8, !tbaa !8
  store double %1, ptr %11, align 8, !tbaa !28
  store double %2, ptr %12, align 8, !tbaa !28
  store i32 %3, ptr %13, align 4, !tbaa !30
  store double %4, ptr %14, align 8, !tbaa !28
  store double %5, ptr %15, align 8, !tbaa !28
  store ptr %6, ptr %16, align 8, !tbaa !32
  store ptr %7, ptr %17, align 8, !tbaa !32
  call void @llvm.lifetime.start.p0(i64 4, ptr %18) #4
  store i32 0, ptr %18, align 4, !tbaa !30
  %21 = load ptr, ptr %10, align 8, !tbaa !8
  %22 = icmp eq ptr %21, null
  br i1 %22, label %23, label %24

23:                                               ; preds = %8
  store i32 -9999, ptr %9, align 4
  store i32 1, ptr %19, align 4
  br label %55

24:                                               ; preds = %8
  call void @llvm.lifetime.start.p0(i64 8, ptr %20) #4
  %25 = load ptr, ptr %10, align 8, !tbaa !8
  %26 = getelementptr inbounds nuw %struct._generic_SUNAdaptController, ptr %25, i32 0, i32 2
  %27 = load ptr, ptr %26, align 8, !tbaa !27
  store ptr %27, ptr %20, align 8, !tbaa !3
  %28 = load double, ptr %11, align 8, !tbaa !28
  %29 = load ptr, ptr %16, align 8, !tbaa !32
  store double %28, ptr %29, align 8, !tbaa !28
  %30 = load double, ptr %12, align 8, !tbaa !28
  %31 = load ptr, ptr %17, align 8, !tbaa !32
  store double %30, ptr %31, align 8, !tbaa !28
  %32 = load ptr, ptr %10, align 8, !tbaa !8
  %33 = getelementptr inbounds nuw %struct._generic_SUNAdaptController, ptr %32, i32 0, i32 1
  %34 = load ptr, ptr %33, align 8, !tbaa !24
  %35 = getelementptr inbounds nuw %struct._generic_SUNAdaptController_Ops, ptr %34, i32 0, i32 2
  %36 = load ptr, ptr %35, align 8, !tbaa !17
  %37 = icmp ne ptr %36, null
  br i1 %37, label %38, label %53

38:                                               ; preds = %24
  %39 = load ptr, ptr %10, align 8, !tbaa !8
  %40 = getelementptr inbounds nuw %struct._generic_SUNAdaptController, ptr %39, i32 0, i32 1
  %41 = load ptr, ptr %40, align 8, !tbaa !24
  %42 = getelementptr inbounds nuw %struct._generic_SUNAdaptController_Ops, ptr %41, i32 0, i32 2
  %43 = load ptr, ptr %42, align 8, !tbaa !17
  %44 = load ptr, ptr %10, align 8, !tbaa !8
  %45 = load double, ptr %11, align 8, !tbaa !28
  %46 = load double, ptr %12, align 8, !tbaa !28
  %47 = load i32, ptr %13, align 4, !tbaa !30
  %48 = load double, ptr %14, align 8, !tbaa !28
  %49 = load double, ptr %15, align 8, !tbaa !28
  %50 = load ptr, ptr %16, align 8, !tbaa !32
  %51 = load ptr, ptr %17, align 8, !tbaa !32
  %52 = call i32 %43(ptr noundef %44, double noundef %45, double noundef %46, i32 noundef %47, double noundef %48, double noundef %49, ptr noundef %50, ptr noundef %51)
  store i32 %52, ptr %18, align 4, !tbaa !30
  br label %53

53:                                               ; preds = %38, %24
  %54 = load i32, ptr %18, align 4, !tbaa !30
  store i32 %54, ptr %9, align 4
  store i32 1, ptr %19, align 4
  call void @llvm.lifetime.end.p0(i64 8, ptr %20) #4
  br label %55

55:                                               ; preds = %53, %23
  call void @llvm.lifetime.end.p0(i64 4, ptr %18) #4
  %56 = load i32, ptr %9, align 4
  ret i32 %56
}