; Function Attrs: nounwind uwtable
define i32 @SUNAdaptController_EstimateStepTol(ptr noundef %0, double noundef %1, double noundef %2, i32 noundef %3, double noundef %4, double noundef %5, ptr noundef %6, ptr noundef %7) local_unnamed_addr #4 {
  %9 = icmp eq ptr %0, null
  br i1 %9, label %17, label %10

10:                                               ; preds = %8
  store double %1, ptr %6, align 8, !tbaa !15
  store double %2, ptr %7, align 8, !tbaa !15
  %11 = getelementptr inbounds nuw i8, ptr %0, i64 8
  %12 = load ptr, ptr %11, align 8, !tbaa !3
  %13 = getelementptr inbounds nuw i8, ptr %12, i64 16
  %14 = load ptr, ptr %13, align 8, !tbaa !18
  %.not = icmp eq ptr %14, null
  br i1 %.not, label %17, label %15

15:                                               ; preds = %10
  %16 = tail call i32 %14(ptr noundef nonnull %0, double noundef %1, double noundef %2, i32 noundef %3, double noundef %4, double noundef %5, ptr noundef nonnull %6, ptr noundef nonnull %7) #7
  br label %17

17:                                               ; preds = %10, %15, %8
  %.0 = phi i32 [ -9999, %8 ], [ %16, %15 ], [ 0, %10 ]
  ret i32 %.0
}